; Function Attrs: nounwind uwtable
define void @yypush_buffer_state(ptr noundef %0, ptr nocapture noundef %1) local_unnamed_addr #0 {
  %3 = icmp eq ptr %0, null
  br i1 %3, label %52, label %4

4:                                                ; preds = %2
  tail call fastcc void @yyensure_buffer_stack(ptr noundef %1)
  %5 = getelementptr inbounds i8, ptr %1, i64 40
  %6 = load ptr, ptr %5, align 8, !nonnull !5, !noundef !5
  %7 = getelementptr inbounds i8, ptr %1, i64 24
  %8 = load i64, ptr %7, align 8
  %9 = getelementptr inbounds ptr, ptr %6, i64 %8
  %10 = load ptr, ptr %9, align 8
  %.not25 = icmp eq ptr %10, null
  br i1 %.not25, label %.thread, label %11

11:                                               ; preds = %4
  %12 = getelementptr inbounds i8, ptr %1, i64 48
  %13 = load i8, ptr %12, align 8
  %14 = getelementptr inbounds i8, ptr %1, i64 64
  %15 = load ptr, ptr %14, align 8
  store i8 %13, ptr %15, align 1
  %16 = load ptr, ptr %14, align 8
  %17 = load ptr, ptr %5, align 8
  %18 = load i64, ptr %7, align 8
  %19 = getelementptr inbounds ptr, ptr %17, i64 %18
  %20 = load ptr, ptr %19, align 8
  %21 = getelementptr inbounds i8, ptr %20, i64 16
  store ptr %16, ptr %21, align 8
  %22 = getelementptr inbounds i8, ptr %1, i64 52
  %23 = load i32, ptr %22, align 4
  %24 = load ptr, ptr %5, align 8
  %25 = load i64, ptr %7, align 8
  %26 = getelementptr inbounds ptr, ptr %24, i64 %25
  %27 = load ptr, ptr %26, align 8
  %28 = getelementptr inbounds i8, ptr %27, i64 28
  store i32 %23, ptr %28, align 4
  %.pr.pre = load ptr, ptr %5, align 8
  %.pre = load i64, ptr %7, align 8
  %.phi.trans.insert = getelementptr inbounds ptr, ptr %.pr.pre, i64 %.pre
  %.pre30 = load ptr, ptr %.phi.trans.insert, align 8
  %29 = icmp eq ptr %.pre30, null
  br i1 %29, label %.thread, label %30

30:                                               ; preds = %11
  %31 = add i64 %.pre, 1
  store i64 %31, ptr %7, align 8
  br label %.thread

.thread:                                          ; preds = %4, %30, %11
  %.pr34 = phi ptr [ %.pr.pre, %30 ], [ %.pr.pre, %11 ], [ %6, %4 ]
  %32 = phi i64 [ %31, %30 ], [ %.pre, %11 ], [ %8, %4 ]
  %33 = getelementptr inbounds ptr, ptr %.pr34, i64 %32
  store ptr %0, ptr %33, align 8
  %34 = load ptr, ptr %5, align 8
  %35 = load i64, ptr %7, align 8
  %36 = getelementptr inbounds ptr, ptr %34, i64 %35
  %37 = load ptr, ptr %36, align 8
  %38 = getelementptr inbounds i8, ptr %37, i64 28
  %39 = load i32, ptr %38, align 4
  %40 = getelementptr inbounds i8, ptr %1, i64 52
  store i32 %39, ptr %40, align 4
  %41 = load ptr, ptr %36, align 8
  %42 = getelementptr inbounds i8, ptr %41, i64 16
  %43 = load ptr, ptr %42, align 8
  %44 = getelementptr inbounds i8, ptr %1, i64 64
  store ptr %43, ptr %44, align 8
  %45 = getelementptr inbounds i8, ptr %1, i64 128
  store ptr %43, ptr %45, align 8
  %46 = load ptr, ptr %36, align 8
  %47 = load ptr, ptr %46, align 8
  %48 = getelementptr inbounds i8, ptr %1, i64 8
  store ptr %47, ptr %48, align 8
  %49 = load i8, ptr %43, align 1
  %50 = getelementptr inbounds i8, ptr %1, i64 48
  store i8 %49, ptr %50, align 8
  %51 = getelementptr inbounds i8, ptr %1, i64 80
  store i32 1, ptr %51, align 8
  br label %52

52:                                               ; preds = %2, %.thread
  ret void
}